target datalayout = "e-m:e-p270:32:32-p271:32:32-p272:64:64-i64:64-i128:128-f80:128-n8:16:32:64-S128"
target triple = "x86_64-pc-linux-gnu"

%struct.except_id_t = type { i64, i64 }
%struct._fvalue_t = type { ptr, %union.anon.1 }
%union.anon.1 = type { %struct._protocol_value_t }
%struct._protocol_value_t = type { ptr, i32, ptr, i8 }
%struct.except_stacknode = type { ptr, i32, %union.anon.2 }
%union.anon.2 = type { ptr }
%struct.except_catch = type { ptr, i64, %struct.except_t, [1 x %struct.__jmp_buf_tag] }
%struct.except_t = type { %struct.except_id_t, ptr, ptr }
%struct.__jmp_buf_tag = type { [8 x i64], i32, %struct.__sigset_t }
%struct.__sigset_t = type { [16 x i64] }

@cmp_matches.catch_spec = internal constant [1 x %struct.except_id_t] [%struct.except_id_t { i64 1, i64 0 }], align 16

; Function Attrs: null_pointer_is_valid sspstrong uwtable
define internal i32 @cmp_matches(ptr noundef %0, ptr noundef %1, ptr noundef %2) #0 {
  %4 = alloca i32, align 4
  %5 = alloca ptr, align 8
  %6 = alloca ptr, align 8
  %7 = alloca ptr, align 8
  %8 = alloca ptr, align 8
  %9 = alloca i8, align 1
  %10 = alloca ptr, align 8
  %11 = alloca i32, align 4
  %12 = alloca i32, align 4
  %13 = alloca ptr, align 8
  %14 = alloca i32, align 4
  %15 = alloca %struct.except_stacknode, align 8
  %16 = alloca %struct.except_catch, align 8
  store ptr %0, ptr %5, align 8
  store ptr %1, ptr %6, align 8
  store ptr %2, ptr %7, align 8
  call void @llvm.lifetime.start.p0(i64 8, ptr %8) #9
  %17 = load ptr, ptr %5, align 8
  %18 = getelementptr inbounds nuw %struct._fvalue_t, ptr %17, i32 0, i32 1
  store ptr %18, ptr %8, align 8
  call void @llvm.lifetime.start.p0(i64 1, ptr %9) #9
  store volatile i8 0, ptr %9, align 1
  call void @llvm.lifetime.start.p0(i64 8, ptr %10) #9
  store ptr null, ptr %10, align 8
  call void @llvm.lifetime.start.p0(i64 4, ptr %11) #9
  %19 = load ptr, ptr %6, align 8
  %20 = icmp ne ptr %19, null
  br i1 %20, label %22, label %21

21:                                               ; preds = %3
  store i32 3, ptr %4, align 4
  store i32 1, ptr %12, align 4
  br label %103

22:                                               ; preds = %3
  call void @llvm.lifetime.start.p0(i64 8, ptr %13) #9
  call void @llvm.lifetime.start.p0(i64 4, ptr %14) #9
  store volatile i32 0, ptr %14, align 4
  call void @llvm.lifetime.start.p0(i64 24, ptr %15) #9
  call void @llvm.lifetime.start.p0(i64 248, ptr %16) #9
  call void @except_setup_try(ptr noundef %15, ptr noundef %16, ptr noundef @cmp_matches.catch_spec, i64 noundef 1)
  %23 = getelementptr inbounds nuw %struct.except_catch, ptr %16, i32 0, i32 3
  %24 = getelementptr inbounds [1 x %struct.__jmp_buf_tag], ptr %23, i64 0, i64 0
  %25 = call i32 @_setjmp(ptr noundef %24) #12
  %26 = icmp ne i32 %25, 0
  br i1 %26, label %27, label %29

27:                                               ; preds = %22
  %28 = getelementptr inbounds nuw %struct.except_catch, ptr %16, i32 0, i32 2
  store volatile ptr %28, ptr %13, align 8
  br label %30

29:                                               ; preds = %22
  store volatile ptr null, ptr %13, align 8
  br label %30

30:                                               ; preds = %29, %27
  %31 = load volatile i32, ptr %14, align 4
  %32 = and i32 %31, 1
  %33 = icmp ne i32 %32, 0
  br i1 %33, label %34, label %37

34:                                               ; preds = %30
  %35 = load volatile i32, ptr %14, align 4
  %36 = or i32 %35, 2
  store volatile i32 %36, ptr %14, align 4
  br label %37

37:                                               ; preds = %34, %30
  %38 = load volatile i32, ptr %14, align 4
  %39 = and i32 %38, -2
  store volatile i32 %39, ptr %14, align 4
  %40 = load volatile i32, ptr %14, align 4
  %41 = icmp eq i32 %40, 0
  br i1 %41, label %42, label %74

42:                                               ; preds = %37
  %43 = load volatile ptr, ptr %13, align 8
  %44 = icmp eq ptr %43, null
  br i1 %44, label %45, label %74

45:                                               ; preds = %42
  %46 = load ptr, ptr %8, align 8
  %47 = getelementptr inbounds nuw %struct._protocol_value_t, ptr %46, i32 0, i32 0
  %48 = load ptr, ptr %47, align 8
  %49 = icmp ne ptr %48, null
  br i1 %49, label %50, label %66

50:                                               ; preds = %45
  %51 = load ptr, ptr %8, align 8
  %52 = getelementptr inbounds nuw %struct._protocol_value_t, ptr %51, i32 0, i32 0
  %53 = load ptr, ptr %52, align 8
  %54 = call i32 @tvb_captured_length(ptr noundef %53)
  store i32 %54, ptr %11, align 4
  %55 = load ptr, ptr %8, align 8
  %56 = getelementptr inbounds nuw %struct._protocol_value_t, ptr %55, i32 0, i32 0
  %57 = load ptr, ptr %56, align 8
  %58 = load i32, ptr %11, align 4
  %59 = call ptr @tvb_get_ptr(ptr noundef %57, i32 noundef 0, i32 noundef %58)
  store ptr %59, ptr %10, align 8
  %60 = load ptr, ptr %6, align 8
  %61 = load ptr, ptr %10, align 8
  %62 = load i32, ptr %11, align 4
  %63 = zext i32 %62 to i64
  %64 = call zeroext i1 @ws_regex_matches_length(ptr noundef %60, ptr noundef %61, i64 noundef %63)
  %65 = zext i1 %64 to i8
  store volatile i8 %65, ptr %9, align 1
  br label %73

66:                                               ; preds = %45
  %67 = load ptr, ptr %6, align 8
  %68 = load ptr, ptr %8, align 8
  %69 = getelementptr inbounds nuw %struct._protocol_value_t, ptr %68, i32 0, i32 2
  %70 = load ptr, ptr %69, align 8
  %71 = call zeroext i1 @ws_regex_matches(ptr noundef %67, ptr noundef %70)
  %72 = zext i1 %71 to i8
  store volatile i8 %72, ptr %9, align 1
  br label %73

73:                                               ; preds = %66, %50
  br label %74

74:                                               ; preds = %73, %42, %37
  %75 = load volatile i32, ptr %14, align 4
  %76 = icmp eq i32 %75, 0
  br i1 %76, label %77, label %85

77:                                               ; preds = %74
  %78 = load volatile ptr, ptr %13, align 8
  %79 = icmp ne ptr %78, null
  br i1 %79, label %80, label %85

80:                                               ; preds = %77
  %81 = load volatile i32, ptr %14, align 4
  %82 = or i32 %81, 1
  store volatile i32 %82, ptr %14, align 4
  %83 = icmp ne i32 %82, 0
  br i1 %83, label %84, label %85

84:                                               ; preds = %80
  store volatile i8 0, ptr %9, align 1
  br label %85

85:                                               ; preds = %84, %80, %77, %74
  %86 = load volatile i32, ptr %14, align 4
  %87 = and i32 %86, 1
  %88 = icmp ne i32 %87, 0
  br i1 %88, label %94, label %89

89:                                               ; preds = %85
  %90 = load volatile ptr, ptr %13, align 8
  %91 = icmp ne ptr %90, null
  br i1 %91, label %92, label %94

92:                                               ; preds = %89
  %93 = load volatile ptr, ptr %13, align 8
  call void @except_rethrow(ptr noundef %93) #13
  unreachable

94:                                               ; preds = %89, %85
  %95 = getelementptr inbounds nuw %struct.except_catch, ptr %16, i32 0, i32 2
  %96 = getelementptr inbounds nuw %struct.except_t, ptr %95, i32 0, i32 2
  %97 = load volatile ptr, ptr %96, align 8
  call void @except_free(ptr noundef %97)
  %98 = call ptr @except_pop()
  call void @llvm.lifetime.end.p0(i64 248, ptr %16) #9
  call void @llvm.lifetime.end.p0(i64 24, ptr %15) #9
  call void @llvm.lifetime.end.p0(i64 4, ptr %14) #9
  call void @llvm.lifetime.end.p0(i64 8, ptr %13) #9
  %99 = load volatile i8, ptr %9, align 1, !range !6, !noundef !7
  %100 = trunc i8 %99 to i1
  %101 = load ptr, ptr %7, align 8
  %102 = zext i1 %100 to i8
  store i8 %102, ptr %101, align 1
  store i32 0, ptr %4, align 4
  store i32 1, ptr %12, align 4
  br label %103

103:                                              ; preds = %94, %21
  call void @llvm.lifetime.end.p0(i64 4, ptr %11) #9
  call void @llvm.lifetime.end.p0(i64 8, ptr %10) #9
  call void @llvm.lifetime.end.p0(i64 1, ptr %9) #9
  call void @llvm.lifetime.end.p0(i64 8, ptr %8) #9
  %104 = load i32, ptr %4, align 4
  ret i32 %104
}