; Function Attrs: null_pointer_is_valid sspstrong uwtable
define internal range(i32 0, 4) i32 @cmp_matches(ptr noundef readonly captures(none) %0, ptr noundef %1, ptr noundef writeonly captures(none) %2) #0 {
  %4 = alloca i8, align 1
  %5 = alloca ptr, align 8
  %6 = alloca i32, align 4
  %7 = alloca %struct.except_stacknode, align 8
  %8 = alloca %struct.except_catch, align 8
  %9 = getelementptr inbounds nuw i8, ptr %0, i64 8
  call void @llvm.lifetime.start.p0(i64 1, ptr nonnull %4)
  store volatile i8 0, ptr %4, align 1
  %.not = icmp eq ptr %1, null
  br i1 %.not, label %48, label %10

10:                                               ; preds = %3
  call void @llvm.lifetime.start.p0(i64 8, ptr nonnull %5)
  call void @llvm.lifetime.start.p0(i64 4, ptr nonnull %6)
  store volatile i32 0, ptr %6, align 4
  call void @llvm.lifetime.start.p0(i64 24, ptr nonnull %7) #12
  call void @llvm.lifetime.start.p0(i64 248, ptr nonnull %8) #12
  call void @except_setup_try(ptr noundef nonnull %7, ptr noundef nonnull %8, ptr noundef nonnull @cmp_matches.catch_spec, i64 noundef 1)
  %11 = getelementptr inbounds nuw i8, ptr %8, i64 48
  %12 = call i32 @_setjmp(ptr noundef nonnull %11) #13
  %.not26 = icmp eq i32 %12, 0
  %13 = getelementptr inbounds nuw i8, ptr %8, i64 16
  %.sink = select i1 %.not26, ptr null, ptr %13
  store volatile ptr %.sink, ptr %5, align 8
  %.0..0..0..0. = load volatile i32, ptr %6, align 4
  %14 = and i32 %.0..0..0..0., 1
  %.not27 = icmp eq i32 %14, 0
  br i1 %.not27, label %17, label %15

15:                                               ; preds = %10
  %.0..0..0..0.1 = load volatile i32, ptr %6, align 4
  %16 = or i32 %.0..0..0..0.1, 2
  store volatile i32 %16, ptr %6, align 4
  br label %17

17:                                               ; preds = %15, %10
  %.0..0..0..0.2 = load volatile i32, ptr %6, align 4
  %18 = and i32 %.0..0..0..0.2, -2
  store volatile i32 %18, ptr %6, align 4
  %.0..0..0..0.3 = load volatile i32, ptr %6, align 4
  %19 = icmp eq i32 %.0..0..0..0.3, 0
  br i1 %19, label %20, label %35

20:                                               ; preds = %17
  %.0..0..0..0.7 = load volatile ptr, ptr %5, align 8
  %21 = icmp eq ptr %.0..0..0..0.7, null
  br i1 %21, label %22, label %35

22:                                               ; preds = %20
  %23 = load ptr, ptr %9, align 8
  %.not28 = icmp eq ptr %23, null
  br i1 %.not28, label %30, label %24

24:                                               ; preds = %22
  %25 = call i32 @tvb_captured_length(ptr noundef nonnull %23)
  %26 = load ptr, ptr %9, align 8
  %27 = call ptr @tvb_get_ptr(ptr noundef %26, i32 noundef 0, i32 noundef %25)
  %28 = zext i32 %25 to i64
  %29 = call zeroext i1 @ws_regex_matches_length(ptr noundef nonnull %1, ptr noundef %27, i64 noundef %28)
  br label %.sink.split

30:                                               ; preds = %22
  %31 = getelementptr inbounds nuw i8, ptr %0, i64 24
  %32 = load ptr, ptr %31, align 8
  %33 = call zeroext i1 @ws_regex_matches(ptr noundef nonnull %1, ptr noundef %32)
  br label %.sink.split

.sink.split:                                      ; preds = %30, %24
  %.sink33 = phi i1 [ %29, %24 ], [ %33, %30 ]
  %34 = zext i1 %.sink33 to i8
  store volatile i8 %34, ptr %4, align 1
  br label %35

35:                                               ; preds = %.sink.split, %20, %17
  %.0..0..0..0.4 = load volatile i32, ptr %6, align 4
  %36 = icmp eq i32 %.0..0..0..0.4, 0
  br i1 %36, label %37, label %40

37:                                               ; preds = %35
  %.0..0..0..0.8 = load volatile ptr, ptr %5, align 8
  %.not29 = icmp eq ptr %.0..0..0..0.8, null
  br i1 %.not29, label %40, label %38

38:                                               ; preds = %37
  %.0..0..0..0.5 = load volatile i32, ptr %6, align 4
  %39 = or i32 %.0..0..0..0.5, 1
  store volatile i32 %39, ptr %6, align 4
  store volatile i8 0, ptr %4, align 1
  br label %40

40:                                               ; preds = %38, %37, %35
  %.0..0..0..0.6 = load volatile i32, ptr %6, align 4
  %41 = and i32 %.0..0..0..0.6, 1
  %.not30 = icmp eq i32 %41, 0
  br i1 %.not30, label %42, label %44

42:                                               ; preds = %40
  %.0..0..0..0.9 = load volatile ptr, ptr %5, align 8
  %.not31 = icmp eq ptr %.0..0..0..0.9, null
  br i1 %.not31, label %44, label %43

43:                                               ; preds = %42
  %.0..0..0..0.10 = load volatile ptr, ptr %5, align 8
  call void @except_rethrow(ptr noundef %.0..0..0..0.10) #14
  unreachable

44:                                               ; preds = %42, %40
  %45 = getelementptr inbounds nuw i8, ptr %8, i64 40
  %46 = load volatile ptr, ptr %45, align 8
  call void @except_free(ptr noundef %46)
  %47 = call ptr @except_pop()
  call void @llvm.lifetime.end.p0(i64 248, ptr nonnull %8) #12
  call void @llvm.lifetime.end.p0(i64 24, ptr nonnull %7) #12
  call void @llvm.lifetime.end.p0(i64 4, ptr nonnull %6)
  call void @llvm.lifetime.end.p0(i64 8, ptr nonnull %5)
  %.0..0..0..0.13 = load volatile i8, ptr %4, align 1, !range !6, !noundef !7
  store i8 %.0..0..0..0.13, ptr %2, align 1
  br label %48

48:                                               ; preds = %3, %44
  %.0 = phi i32 [ 0, %44 ], [ 3, %3 ]
  call void @llvm.lifetime.end.p0(i64 1, ptr nonnull %4)
  ret i32 %.0
}